; Function Attrs: inlinehint nounwind uwtable
define internal fastcc void @do_imdct(ptr noundef %0, i32 noundef %1, i32 noundef range(i32 0, 8) %2) unnamed_addr #9 {
  %.not60 = icmp slt i32 %1, 1
  br i1 %.not60, label %._crit_edge, label %.lr.ph

.lr.ph:                                           ; preds = %3
  %invariant.op = add nsw i32 %2, -1
  %4 = getelementptr inbounds nuw i8, ptr %0, i64 54840
  %5 = getelementptr inbounds nuw i8, ptr %0, i64 86672
  %6 = getelementptr inbounds nuw i8, ptr %0, i64 87184
  %7 = getelementptr inbounds nuw i8, ptr %0, i64 62096
  %8 = getelementptr inbounds nuw i8, ptr %0, i64 192
  %9 = getelementptr inbounds nuw i8, ptr %0, i64 176
  %10 = getelementptr inbounds nuw i8, ptr %0, i64 64
  %11 = getelementptr inbounds nuw i8, ptr %0, i64 54872
  %12 = getelementptr inbounds nuw i8, ptr %0, i64 69264
  %13 = getelementptr inbounds nuw i8, ptr %0, i64 85648
  %14 = getelementptr inbounds nuw i8, ptr %0, i64 200
  %15 = getelementptr inbounds nuw i8, ptr %0, i64 184
  %16 = add nuw i32 %1, 1
  %wide.trip.count = zext i32 %16 to i64
  br label %17

17:                                               ; preds = %.lr.ph, %58
  %indvars.iv67 = phi i64 [ 1, %.lr.ph ], [ %indvars.iv.next68, %58 ]
  %18 = getelementptr inbounds nuw [7 x i32], ptr %4, i64 0, i64 %indvars.iv67
  %19 = load i32, ptr %18, align 4, !tbaa !43
  %.not55 = icmp eq i32 %19, 0
  br i1 %.not55, label %45, label %.preheader

.preheader:                                       ; preds = %17, %.preheader
  %indvars.iv = phi i64 [ %indvars.iv.next, %.preheader ], [ 0, %17 ]
  %20 = shl nuw nsw i64 %indvars.iv, 1
  %21 = getelementptr inbounds nuw [7 x [256 x i32]], ptr %7, i64 0, i64 %indvars.iv67, i64 %20
  %22 = load i32, ptr %21, align 4, !tbaa !43
  %23 = getelementptr inbounds nuw i32, ptr %6, i64 %indvars.iv
  store i32 %22, ptr %23, align 4, !tbaa !43
  %indvars.iv.next = add nuw nsw i64 %indvars.iv, 1
  %exitcond.not = icmp eq i64 %indvars.iv.next, 128
  br i1 %exitcond.not, label %24, label %.preheader, !llvm.loop !273

24:                                               ; preds = %.preheader
  %25 = load ptr, ptr %8, align 16, !tbaa !274
  %26 = load ptr, ptr %9, align 16, !tbaa !275
  tail call void %25(ptr noundef %26, ptr noundef nonnull %5, ptr noundef nonnull %6, i64 noundef 4) #12
  %27 = load ptr, ptr %10, align 16, !tbaa !40
  %28 = load ptr, ptr %27, align 8, !tbaa !276
  %29 = add nsw i64 %indvars.iv67, -1
  %30 = getelementptr inbounds [7 x ptr], ptr %11, i64 0, i64 %29
  %31 = load ptr, ptr %30, align 8, !tbaa !156
  %32 = trunc i64 %indvars.iv67 to i32
  %33 = add i32 %invariant.op, %32
  %34 = sext i32 %33 to i64
  %35 = getelementptr inbounds [16 x [256 x i32]], ptr %12, i64 0, i64 %34
  tail call void %28(ptr noundef %31, ptr noundef nonnull %35, ptr noundef nonnull %5, ptr noundef nonnull %13, i32 noundef 128, i8 noundef zeroext 8) #12
  br label %36

36:                                               ; preds = %24, %36
  %indvars.iv63 = phi i64 [ 0, %24 ], [ %indvars.iv.next64, %36 ]
  %37 = shl nuw nsw i64 %indvars.iv63, 1
  %38 = or disjoint i64 %37, 1
  %39 = getelementptr inbounds nuw [7 x [256 x i32]], ptr %7, i64 0, i64 %indvars.iv67, i64 %38
  %40 = load i32, ptr %39, align 4, !tbaa !43
  %41 = getelementptr inbounds nuw i32, ptr %6, i64 %indvars.iv63
  store i32 %40, ptr %41, align 4, !tbaa !43
  %indvars.iv.next64 = add nuw nsw i64 %indvars.iv63, 1
  %exitcond66.not = icmp eq i64 %indvars.iv.next64, 128
  br i1 %exitcond66.not, label %42, label %36, !llvm.loop !278

42:                                               ; preds = %36
  %43 = load ptr, ptr %8, align 16, !tbaa !274
  %44 = load ptr, ptr %9, align 16, !tbaa !275
  tail call void %43(ptr noundef %44, ptr noundef nonnull %35, ptr noundef nonnull %6, i64 noundef 4) #12
  br label %58

45:                                               ; preds = %17
  %46 = load ptr, ptr %14, align 8, !tbaa !279
  %47 = load ptr, ptr %15, align 8, !tbaa !280
  %48 = getelementptr inbounds nuw [7 x [256 x i32]], ptr %7, i64 0, i64 %indvars.iv67
  tail call void %46(ptr noundef %47, ptr noundef nonnull %5, ptr noundef nonnull %48, i64 noundef 4) #12
  %49 = load ptr, ptr %10, align 16, !tbaa !40
  %50 = load ptr, ptr %49, align 8, !tbaa !276
  %51 = add nsw i64 %indvars.iv67, -1
  %52 = getelementptr inbounds [7 x ptr], ptr %11, i64 0, i64 %51
  %53 = load ptr, ptr %52, align 8, !tbaa !156
  %54 = trunc i64 %indvars.iv67 to i32
  %55 = add i32 %invariant.op, %54
  %56 = sext i32 %55 to i64
  %57 = getelementptr inbounds [16 x [256 x i32]], ptr %12, i64 0, i64 %56
  tail call void %50(ptr noundef %53, ptr noundef nonnull %57, ptr noundef nonnull %5, ptr noundef nonnull %13, i32 noundef 128, i8 noundef zeroext 8) #12
  tail call void @llvm.memcpy.p0.p0.i64(ptr noundef nonnull align 16 dereferenceable(512) %57, ptr noundef nonnull align 4 dereferenceable(512) %6, i64 512, i1 false)
  br label %58

58:                                               ; preds = %42, %45
  %indvars.iv.next68 = add nuw nsw i64 %indvars.iv67, 1
  %exitcond72.not = icmp eq i64 %indvars.iv.next68, %wide.trip.count
  br i1 %exitcond72.not, label %._crit_edge, label %17, !llvm.loop !281

._crit_edge:                                      ; preds = %58, %3
  ret void
}